target datalayout = "e-m:e-p270:32:32-p271:32:32-p272:64:64-i64:64-i128:128-f80:128-n8:16:32:64-S128"
target triple = "x86_64-unknown-linux-gnu"

%"struct.net::HpackPrefix" = type { i8, i64 }
%"class.net::HpackDecoder" = type { %"class.net::HpackDecoderInterface", %"class.net::HpackHeaderTable", %"class.std::__cxx11::basic_string", %"class.net::SpdyHeaderBlock", %"class.std::__cxx11::basic_string", %"class.std::__cxx11::basic_string", ptr, i64, i64, i32, i8, i8, i8, i8 }
%"class.net::HpackDecoderInterface" = type { ptr }
%"class.net::HpackHeaderTable" = type { ptr, %"class.std::deque", ptr, ptr, %"class.std::unordered_set", %"class.std::unordered_map", i64, i64, i64, i64, %"class.std::unique_ptr" }
%"class.std::deque" = type { %"class.std::_Deque_base" }
%"class.std::_Deque_base" = type { %"struct.std::_Deque_base<net::HpackEntry, std::allocator<net::HpackEntry>>::_Deque_impl" }
%"struct.std::_Deque_base<net::HpackEntry, std::allocator<net::HpackEntry>>::_Deque_impl" = type { %"struct.std::_Deque_base<net::HpackEntry, std::allocator<net::HpackEntry>>::_Deque_impl_data" }
%"struct.std::_Deque_base<net::HpackEntry, std::allocator<net::HpackEntry>>::_Deque_impl_data" = type { ptr, i64, %"struct.std::_Deque_iterator", %"struct.std::_Deque_iterator" }
%"struct.std::_Deque_iterator" = type { ptr, ptr, ptr, ptr }
%"class.std::unordered_set" = type { %"class.std::_Hashtable" }
%"class.std::_Hashtable" = type { ptr, i64, %"struct.std::__detail::_Hash_node_base", i64, %"struct.std::__detail::_Prime_rehash_policy", ptr }
%"struct.std::__detail::_Hash_node_base" = type { ptr }
%"struct.std::__detail::_Prime_rehash_policy" = type { float, i64 }
%"class.std::unordered_map" = type { %"class.std::_Hashtable.5" }
%"class.std::_Hashtable.5" = type { ptr, i64, %"struct.std::__detail::_Hash_node_base", i64, %"struct.std::__detail::_Prime_rehash_policy", ptr }
%"class.std::unique_ptr" = type { %"struct.std::__uniq_ptr_data" }
%"struct.std::__uniq_ptr_data" = type { %"class.std::__uniq_ptr_impl" }
%"class.std::__uniq_ptr_impl" = type { %"class.std::tuple" }
%"class.std::tuple" = type { %"struct.std::_Tuple_impl" }
%"struct.std::_Tuple_impl" = type { %"struct.std::_Head_base.21" }
%"struct.std::_Head_base.21" = type { ptr }
%"class.net::SpdyHeaderBlock" = type { %class.linked_hash_map, %"class.std::unique_ptr.42" }
%class.linked_hash_map = type { %"class.std::unordered_map.25", %"class.std::__cxx11::list" }
%"class.std::unordered_map.25" = type { %"class.std::_Hashtable.26" }
%"class.std::_Hashtable.26" = type { ptr, i64, %"struct.std::__detail::_Hash_node_base", i64, %"struct.std::__detail::_Prime_rehash_policy", ptr }
%"class.std::__cxx11::list" = type { %"class.std::__cxx11::_List_base" }
%"class.std::__cxx11::_List_base" = type { %"struct.std::__cxx11::_List_base<std::pair<base::BasicStringPiece<std::string>, base::BasicStringPiece<std::string>>, std::allocator<std::pair<base::BasicStringPiece<std::string>, base::BasicStringPiece<std::string>>>>::_List_impl" }
%"struct.std::__cxx11::_List_base<std::pair<base::BasicStringPiece<std::string>, base::BasicStringPiece<std::string>>, std::allocator<std::pair<base::BasicStringPiece<std::string>, base::BasicStringPiece<std::string>>>>::_List_impl" = type { %"struct.std::__detail::_List_node_header" }
%"struct.std::__detail::_List_node_header" = type { %"struct.std::__detail::_List_node_base", i64 }
%"struct.std::__detail::_List_node_base" = type { ptr, ptr }
%"class.std::unique_ptr.42" = type { %"struct.std::__uniq_ptr_data.43" }
%"struct.std::__uniq_ptr_data.43" = type { %"class.std::__uniq_ptr_impl.44" }
%"class.std::__uniq_ptr_impl.44" = type { %"class.std::tuple.45" }
%"class.std::tuple.45" = type { %"struct.std::_Tuple_impl.46" }
%"struct.std::_Tuple_impl.46" = type { %"struct.std::_Head_base.49" }
%"struct.std::_Head_base.49" = type { ptr }
%"class.std::__cxx11::basic_string" = type { %"struct.std::__cxx11::basic_string<char>::_Alloc_hider", i64, %union.anon }
%"struct.std::__cxx11::basic_string<char>::_Alloc_hider" = type { ptr }
%union.anon = type { i64, [8 x i8] }
%"class.base::BasicStringPiece" = type { ptr, i64 }

@_ZN3netL28kStringLiteralHuffmanEncodedE = internal constant %"struct.net::HpackPrefix" { i8 1, i64 1 }, align 8
@_ZN3netL29kStringLiteralIdentityEncodedE = internal constant %"struct.net::HpackPrefix" { i8 0, i64 1 }, align 8

; Function Attrs: mustprogress nounwind uwtable
define linkonce_odr dso_local void @_Z13ignore_resultIPKN3net10HpackEntryEEvRKT_(ptr noundef nonnull align 8 dereferenceable(8) %0) #1 comdat {
entry:
  %.addr = alloca ptr, align 8
  store ptr %0, ptr %.addr, align 8
  ret void
}

; Function Attrs: mustprogress uwtable
define dso_local noundef zeroext i1 @_ZN3net12HpackDecoder23DecodeNextStringLiteralEPNS_16HpackInputStreamEbPN4base16BasicStringPieceINSt7__cxx1112basic_stringIcSt11char_traitsIcESaIcEEEEE(ptr noundef nonnull align 8 dereferenceable(480) %this, ptr noundef %input_stream, i1 noundef zeroext %is_key, ptr noundef %output) #0 align 2 {
entry:
  %retval = alloca i1, align 1
  %this.addr = alloca ptr, align 8
  %input_stream.addr = alloca ptr, align 8
  %is_key.addr = alloca i8, align 1
  %output.addr = alloca ptr, align 8
  %agg.tmp = alloca %"struct.net::HpackPrefix", align 8
  %buffer = alloca ptr, align 8
  %result = alloca i8, align 1
  %ref.tmp = alloca %"class.base::BasicStringPiece", align 8
  %agg.tmp5 = alloca %"struct.net::HpackPrefix", align 8
  store ptr %this, ptr %this.addr, align 8
  store ptr %input_stream, ptr %input_stream.addr, align 8
  %frombool = zext i1 %is_key to i8
  store i8 %frombool, ptr %is_key.addr, align 1
  store ptr %output, ptr %output.addr, align 8
  %this1 = load ptr, ptr %this.addr, align 8
  %0 = load ptr, ptr %input_stream.addr, align 8
  call void @llvm.memcpy.p0.p0.i64(ptr align 8 %agg.tmp, ptr align 8 @_ZN3netL28kStringLiteralHuffmanEncodedE, i64 16, i1 false)
  %1 = getelementptr inbounds { i8, i64 }, ptr %agg.tmp, i32 0, i32 0
  %2 = load i8, ptr %1, align 8
  %3 = getelementptr inbounds { i8, i64 }, ptr %agg.tmp, i32 0, i32 1
  %4 = load i64, ptr %3, align 8
  %call = call noundef zeroext i1 @_ZN3net16HpackInputStream21MatchPrefixAndConsumeENS_11HpackPrefixE(ptr noundef nonnull align 8 dereferenceable(33) %0, i8 %2, i64 %4)
  br i1 %call, label %if.then, label %if.end

if.then:                                          ; preds = %entry
  %5 = load i8, ptr %is_key.addr, align 1
  %tobool = trunc i8 %5 to i1
  br i1 %tobool, label %cond.true, label %cond.false

cond.true:                                        ; preds = %if.then
  %key_buffer_ = getelementptr inbounds %"class.net::HpackDecoder", ptr %this1, i32 0, i32 4
  br label %cond.end

cond.false:                                       ; preds = %if.then
  %value_buffer_ = getelementptr inbounds %"class.net::HpackDecoder", ptr %this1, i32 0, i32 5
  br label %cond.end

cond.end:                                         ; preds = %cond.false, %cond.true
  %cond = phi ptr [ %key_buffer_, %cond.true ], [ %value_buffer_, %cond.false ]
  store ptr %cond, ptr %buffer, align 8
  %6 = load ptr, ptr %input_stream.addr, align 8
  %7 = load ptr, ptr %buffer, align 8
  %call2 = call noundef zeroext i1 @_ZN3net16HpackInputStream23DecodeNextHuffmanStringEPNSt7__cxx1112basic_stringIcSt11char_traitsIcESaIcEEE(ptr noundef nonnull align 8 dereferenceable(33) %6, ptr noundef %7)
  %frombool3 = zext i1 %call2 to i8
  store i8 %frombool3, ptr %result, align 1
  %8 = load ptr, ptr %buffer, align 8
  call void @_ZN4base16BasicStringPieceINSt7__cxx1112basic_stringIcSt11char_traitsIcESaIcEEEEC1ERKS6_(ptr noundef nonnull align 8 dereferenceable(16) %ref.tmp, ptr noundef nonnull align 8 dereferenceable(32) %8)
  %9 = load ptr, ptr %output.addr, align 8
  call void @llvm.memcpy.p0.p0.i64(ptr align 8 %9, ptr align 8 %ref.tmp, i64 16, i1 false)
  %10 = load i8, ptr %result, align 1
  %tobool4 = trunc i8 %10 to i1
  store i1 %tobool4, ptr %retval, align 1
  br label %return

if.end:                                           ; preds = %entry
  %11 = load ptr, ptr %input_stream.addr, align 8
  call void @llvm.memcpy.p0.p0.i64(ptr align 8 %agg.tmp5, ptr align 8 @_ZN3netL29kStringLiteralIdentityEncodedE, i64 16, i1 false)
  %12 = getelementptr inbounds { i8, i64 }, ptr %agg.tmp5, i32 0, i32 0
  %13 = load i8, ptr %12, align 8
  %14 = getelementptr inbounds { i8, i64 }, ptr %agg.tmp5, i32 0, i32 1
  %15 = load i64, ptr %14, align 8
  %call6 = call noundef zeroext i1 @_ZN3net16HpackInputStream21MatchPrefixAndConsumeENS_11HpackPrefixE(ptr noundef nonnull align 8 dereferenceable(33) %11, i8 %13, i64 %15)
  br i1 %call6, label %if.then7, label %if.end9

if.then7:                                         ; preds = %if.end
  %16 = load ptr, ptr %input_stream.addr, align 8
  %17 = load ptr, ptr %output.addr, align 8
  %call8 = call noundef zeroext i1 @_ZN3net16HpackInputStream24DecodeNextIdentityStringEPN4base16BasicStringPieceINSt7__cxx1112basic_stringIcSt11char_traitsIcESaIcEEEEE(ptr noundef nonnull align 8 dereferenceable(33) %16, ptr noundef %17)
  store i1 %call8, ptr %retval, align 1
  br label %return

if.end9:                                          ; preds = %if.end
  store i1 false, ptr %retval, align 1
  br label %return

return:                                           ; preds = %if.end9, %if.then7, %cond.end
  %18 = load i1, ptr %retval, align 1
  ret i1 %18
}

; Function Attrs: mustprogress uwtable
define dso_local noundef zeroext i1 @_ZN3net12HpackDecoder23DecodeNextLiteralHeaderEPNS_16HpackInputStreamEb(ptr noundef nonnull align 8 dereferenceable(480) %this, ptr noundef %input_stream, i1 noundef zeroext %should_index) #0 align 2 {
entry:
  %retval = alloca i1, align 1
  %this.addr = alloca ptr, align 8
  %input_stream.addr = alloca ptr, align 8
  %should_index.addr = alloca i8, align 1
  %name = alloca %"class.base::BasicStringPiece", align 8
  %value = alloca %"class.base::BasicStringPiece", align 8
  %agg.tmp = alloca %"class.base::BasicStringPiece", align 8
  %agg.tmp5 = alloca %"class.base::BasicStringPiece", align 8
  %ref.tmp = alloca ptr, align 8
  %agg.tmp11 = alloca %"class.base::BasicStringPiece", align 8
  %agg.tmp12 = alloca %"class.base::BasicStringPiece", align 8
  store ptr %this, ptr %this.addr, align 8
  store ptr %input_stream, ptr %input_stream.addr, align 8
  %frombool = zext i1 %should_index to i8
  store i8 %frombool, ptr %should_index.addr, align 1
  %this1 = load ptr, ptr %this.addr, align 8
  call void @_ZN4base16BasicStringPieceINSt7__cxx1112basic_stringIcSt11char_traitsIcESaIcEEEEC1Ev(ptr noundef nonnull align 8 dereferenceable(16) %name)
  %0 = load ptr, ptr %input_stream.addr, align 8
  %call = call noundef zeroext i1 @_ZN3net12HpackDecoder14DecodeNextNameEPNS_16HpackInputStreamEPN4base16BasicStringPieceINSt7__cxx1112basic_stringIcSt11char_traitsIcESaIcEEEEE(ptr noundef nonnull align 8 dereferenceable(480) %this1, ptr noundef %0, ptr noundef %name)
  br i1 %call, label %if.end, label %if.then

if.then:                                          ; preds = %entry
  store i1 false, ptr %retval, align 1
  br label %return

if.end:                                           ; preds = %entry
  call void @_ZN4base16BasicStringPieceINSt7__cxx1112basic_stringIcSt11char_traitsIcESaIcEEEEC1Ev(ptr noundef nonnull align 8 dereferenceable(16) %value)
  %1 = load ptr, ptr %input_stream.addr, align 8
  %call2 = call noundef zeroext i1 @_ZN3net12HpackDecoder23DecodeNextStringLiteralEPNS_16HpackInputStreamEbPN4base16BasicStringPieceINSt7__cxx1112basic_stringIcSt11char_traitsIcESaIcEEEEE(ptr noundef nonnull align 8 dereferenceable(480) %this1, ptr noundef %1, i1 noundef zeroext false, ptr noundef %value)
  br i1 %call2, label %if.end4, label %if.then3

if.then3:                                         ; preds = %if.end
  store i1 false, ptr %retval, align 1
  br label %return

if.end4:                                          ; preds = %if.end
  call void @llvm.memcpy.p0.p0.i64(ptr align 8 %agg.tmp, ptr align 8 %name, i64 16, i1 false)
  call void @llvm.memcpy.p0.p0.i64(ptr align 8 %agg.tmp5, ptr align 8 %value, i64 16, i1 false)
  %2 = getelementptr inbounds { ptr, i64 }, ptr %agg.tmp, i32 0, i32 0
  %3 = load ptr, ptr %2, align 8
  %4 = getelementptr inbounds { ptr, i64 }, ptr %agg.tmp, i32 0, i32 1
  %5 = load i64, ptr %4, align 8
  %6 = getelementptr inbounds { ptr, i64 }, ptr %agg.tmp5, i32 0, i32 0
  %7 = load ptr, ptr %6, align 8
  %8 = getelementptr inbounds { ptr, i64 }, ptr %agg.tmp5, i32 0, i32 1
  %9 = load i64, ptr %8, align 8
  %call6 = call noundef zeroext i1 @_ZN3net12HpackDecoder26HandleHeaderRepresentationEN4base16BasicStringPieceINSt7__cxx1112basic_stringIcSt11char_traitsIcESaIcEEEEES9_(ptr noundef nonnull align 8 dereferenceable(480) %this1, ptr %3, i64 %5, ptr %7, i64 %9)
  br i1 %call6, label %if.end8, label %if.then7

if.then7:                                         ; preds = %if.end4
  store i1 false, ptr %retval, align 1
  br label %return

if.end8:                                          ; preds = %if.end4
  %10 = load i8, ptr %should_index.addr, align 1
  %tobool = trunc i8 %10 to i1
  br i1 %tobool, label %if.end10, label %if.then9

if.then9:                                         ; preds = %if.end8
  store i1 true, ptr %retval, align 1
  br label %return

if.end10:                                         ; preds = %if.end8
  %header_table_ = getelementptr inbounds %"class.net::HpackDecoder", ptr %this1, i32 0, i32 1
  call void @llvm.memcpy.p0.p0.i64(ptr align 8 %agg.tmp11, ptr align 8 %name, i64 16, i1 false)
  call void @llvm.memcpy.p0.p0.i64(ptr align 8 %agg.tmp12, ptr align 8 %value, i64 16, i1 false)
  %11 = getelementptr inbounds { ptr, i64 }, ptr %agg.tmp11, i32 0, i32 0
  %12 = load ptr, ptr %11, align 8
  %13 = getelementptr inbounds { ptr, i64 }, ptr %agg.tmp11, i32 0, i32 1
  %14 = load i64, ptr %13, align 8
  %15 = getelementptr inbounds { ptr, i64 }, ptr %agg.tmp12, i32 0, i32 0
  %16 = load ptr, ptr %15, align 8
  %17 = getelementptr inbounds { ptr, i64 }, ptr %agg.tmp12, i32 0, i32 1
  %18 = load i64, ptr %17, align 8
  %call13 = call noundef ptr @_ZN3net16HpackHeaderTable11TryAddEntryEN4base16BasicStringPieceINSt7__cxx1112basic_stringIcSt11char_traitsIcESaIcEEEEES9_(ptr noundef nonnull align 8 dereferenceable(256) %header_table_, ptr %12, i64 %14, ptr %16, i64 %18)
  store ptr %call13, ptr %ref.tmp, align 8
  call void @_Z13ignore_resultIPKN3net10HpackEntryEEvRKT_(ptr noundef nonnull align 8 dereferenceable(8) %ref.tmp)
  store i1 true, ptr %retval, align 1
  br label %return

return:                                           ; preds = %if.end10, %if.then9, %if.then7, %if.then3, %if.then
  %19 = load i1, ptr %retval, align 1
  ret i1 %19
}