; Function Attrs: mustprogress uwtable
define dso_local noundef zeroext i1 @_ZN3net12HpackDecoder23DecodeNextLiteralHeaderEPNS_16HpackInputStreamEb(ptr noundef nonnull align 8 dereferenceable(480) %this, ptr noundef %input_stream, i1 noundef zeroext %should_index) local_unnamed_addr #0 align 2 {
entry:
  %ref.tmp.i = alloca %"class.base::BasicStringPiece", align 8
  %name = alloca %"class.base::BasicStringPiece", align 8
  %value = alloca %"class.base::BasicStringPiece", align 8
  call void @_ZN4base16BasicStringPieceINSt7__cxx1112basic_stringIcSt11char_traitsIcESaIcEEEEC1Ev(ptr noundef nonnull align 8 dereferenceable(16) %name)
  %call = call noundef zeroext i1 @_ZN3net12HpackDecoder14DecodeNextNameEPNS_16HpackInputStreamEPN4base16BasicStringPieceINSt7__cxx1112basic_stringIcSt11char_traitsIcESaIcEEEEE(ptr noundef nonnull align 8 dereferenceable(480) %this, ptr noundef %input_stream, ptr noundef nonnull %name)
  br i1 %call, label %if.end, label %return

if.end:                                           ; preds = %entry
  call void @_ZN4base16BasicStringPieceINSt7__cxx1112basic_stringIcSt11char_traitsIcESaIcEEEEC1Ev(ptr noundef nonnull align 8 dereferenceable(16) %value)
  call void @llvm.lifetime.start.p0(i64 16, ptr nonnull %ref.tmp.i)
  %call.i = call noundef zeroext i1 @_ZN3net16HpackInputStream21MatchPrefixAndConsumeENS_11HpackPrefixE(ptr noundef nonnull align 8 dereferenceable(33) %input_stream, i8 1, i64 1)
  br i1 %call.i, label %if.then.i, label %if.end.i

if.then.i:                                        ; preds = %if.end
  %cond.i = getelementptr inbounds i8, ptr %this, i64 416
  %call2.i = call noundef zeroext i1 @_ZN3net16HpackInputStream23DecodeNextHuffmanStringEPNSt7__cxx1112basic_stringIcSt11char_traitsIcESaIcEEE(ptr noundef nonnull align 8 dereferenceable(33) %input_stream, ptr noundef nonnull %cond.i)
  call void @_ZN4base16BasicStringPieceINSt7__cxx1112basic_stringIcSt11char_traitsIcESaIcEEEEC1ERKS6_(ptr noundef nonnull align 8 dereferenceable(16) %ref.tmp.i, ptr noundef nonnull align 8 dereferenceable(32) %cond.i)
  call void @llvm.memcpy.p0.p0.i64(ptr noundef nonnull align 8 dereferenceable(16) %value, ptr noundef nonnull align 8 dereferenceable(16) %ref.tmp.i, i64 16, i1 false)
  call void @llvm.lifetime.end.p0(i64 16, ptr nonnull %ref.tmp.i)
  br i1 %call2.i, label %if.end4, label %return

if.end.i:                                         ; preds = %if.end
  %call6.i = call noundef zeroext i1 @_ZN3net16HpackInputStream21MatchPrefixAndConsumeENS_11HpackPrefixE(ptr noundef nonnull align 8 dereferenceable(33) %input_stream, i8 0, i64 1)
  br i1 %call6.i, label %_ZN3net12HpackDecoder23DecodeNextStringLiteralEPNS_16HpackInputStreamEbPN4base16BasicStringPieceINSt7__cxx1112basic_stringIcSt11char_traitsIcESaIcEEEEE.exit, label %_ZN3net12HpackDecoder23DecodeNextStringLiteralEPNS_16HpackInputStreamEbPN4base16BasicStringPieceINSt7__cxx1112basic_stringIcSt11char_traitsIcESaIcEEEEE.exit.thread

_ZN3net12HpackDecoder23DecodeNextStringLiteralEPNS_16HpackInputStreamEbPN4base16BasicStringPieceINSt7__cxx1112basic_stringIcSt11char_traitsIcESaIcEEEEE.exit.thread: ; preds = %if.end.i
  call void @llvm.lifetime.end.p0(i64 16, ptr nonnull %ref.tmp.i)
  br label %return

_ZN3net12HpackDecoder23DecodeNextStringLiteralEPNS_16HpackInputStreamEbPN4base16BasicStringPieceINSt7__cxx1112basic_stringIcSt11char_traitsIcESaIcEEEEE.exit: ; preds = %if.end.i
  %call8.i = call noundef zeroext i1 @_ZN3net16HpackInputStream24DecodeNextIdentityStringEPN4base16BasicStringPieceINSt7__cxx1112basic_stringIcSt11char_traitsIcESaIcEEEEE(ptr noundef nonnull align 8 dereferenceable(33) %input_stream, ptr noundef nonnull %value)
  call void @llvm.lifetime.end.p0(i64 16, ptr nonnull %ref.tmp.i)
  br i1 %call8.i, label %if.end4, label %return

if.end4:                                          ; preds = %if.then.i, %_ZN3net12HpackDecoder23DecodeNextStringLiteralEPNS_16HpackInputStreamEbPN4base16BasicStringPieceINSt7__cxx1112basic_stringIcSt11char_traitsIcESaIcEEEEE.exit
  %agg.tmp.sroa.0.0.copyload = load ptr, ptr %name, align 8
  %agg.tmp.sroa.2.0.name.sroa_idx = getelementptr inbounds i8, ptr %name, i64 8
  %agg.tmp.sroa.2.0.copyload = load i64, ptr %agg.tmp.sroa.2.0.name.sroa_idx, align 8
  %agg.tmp5.sroa.0.0.copyload = load ptr, ptr %value, align 8
  %agg.tmp5.sroa.2.0.value.sroa_idx = getelementptr inbounds i8, ptr %value, i64 8
  %agg.tmp5.sroa.2.0.copyload = load i64, ptr %agg.tmp5.sroa.2.0.value.sroa_idx, align 8
  %call6 = call noundef zeroext i1 @_ZN3net12HpackDecoder26HandleHeaderRepresentationEN4base16BasicStringPieceINSt7__cxx1112basic_stringIcSt11char_traitsIcESaIcEEEEES9_(ptr noundef nonnull align 8 dereferenceable(480) %this, ptr %agg.tmp.sroa.0.0.copyload, i64 %agg.tmp.sroa.2.0.copyload, ptr %agg.tmp5.sroa.0.0.copyload, i64 %agg.tmp5.sroa.2.0.copyload)
  br i1 %should_index, label %if.end10, label %return

if.end10:                                         ; preds = %if.end4
  %header_table_ = getelementptr inbounds i8, ptr %this, i64 8
  %agg.tmp11.sroa.0.0.copyload = load ptr, ptr %name, align 8
  %agg.tmp11.sroa.2.0.copyload = load i64, ptr %agg.tmp.sroa.2.0.name.sroa_idx, align 8
  %agg.tmp12.sroa.0.0.copyload = load ptr, ptr %value, align 8
  %agg.tmp12.sroa.2.0.copyload = load i64, ptr %agg.tmp5.sroa.2.0.value.sroa_idx, align 8
  %call13 = call noundef ptr @_ZN3net16HpackHeaderTable11TryAddEntryEN4base16BasicStringPieceINSt7__cxx1112basic_stringIcSt11char_traitsIcESaIcEEEEES9_(ptr noundef nonnull align 8 dereferenceable(256) %header_table_, ptr %agg.tmp11.sroa.0.0.copyload, i64 %agg.tmp11.sroa.2.0.copyload, ptr %agg.tmp12.sroa.0.0.copyload, i64 %agg.tmp12.sroa.2.0.copyload)
  br label %return

return:                                           ; preds = %if.then.i, %_ZN3net12HpackDecoder23DecodeNextStringLiteralEPNS_16HpackInputStreamEbPN4base16BasicStringPieceINSt7__cxx1112basic_stringIcSt11char_traitsIcESaIcEEEEE.exit.thread, %if.end4, %_ZN3net12HpackDecoder23DecodeNextStringLiteralEPNS_16HpackInputStreamEbPN4base16BasicStringPieceINSt7__cxx1112basic_stringIcSt11char_traitsIcESaIcEEEEE.exit, %entry, %if.end10
  %retval.0 = phi i1 [ true, %if.end10 ], [ false, %entry ], [ false, %_ZN3net12HpackDecoder23DecodeNextStringLiteralEPNS_16HpackInputStreamEbPN4base16BasicStringPieceINSt7__cxx1112basic_stringIcSt11char_traitsIcESaIcEEEEE.exit ], [ true, %if.end4 ], [ false, %_ZN3net12HpackDecoder23DecodeNextStringLiteralEPNS_16HpackInputStreamEbPN4base16BasicStringPieceINSt7__cxx1112basic_stringIcSt11char_traitsIcESaIcEEEEE.exit.thread ], [ false, %if.then.i ]
  ret i1 %retval.0
}